(lp0
S'011111101100001001000100110100000101001010110011111110001000110000100101010101010001001010'
p1
aS'100100001011001110101110110011101110011010110010000110010000001'
p2
aS'010001010000111110101001001000101110101100010101100001'
p3
aS'110000110100111001101011101001110001101110101010010010'
p4
aS'100000010100000001011100010'
p5
aS'011011001011001010101011010100000110'
p6
aS'101000001100011110011101010011001110101110110000111010000001001010001001001010110'
p7
aS'101101010100000101011110001101000001100000101100101010011000001'
p8
aS'001011010100000110011000110110000110110000001000101110001111001001100110011111101'
p9
aS'001011010010110101001011110000111101101010101101010001000100110100101001'
p10
aS'001011101011100101101000001010010110010011101100011010011001001010110101'
p11
aS'010010001010000101'
p12
aS'000010001000110110010101101101110110000101001100111110000100001'
p13
aS'100011001001001001001000110011010010'
p14
aS'010011001011100010011010110100011010101010101010100010'
p15
aS'011101110001110010011010010011011101011100001100101101010000001100001110010000110000101010'
p16
aS'100111001000100001100010010001000110011100101'
p17
aS'000010001001000101000110110000111101100101010001000001001100110'
p18
aS'010011101010000110010101010000110101010100110'
p19
aS'001111001100010101000010001011101001'
p20
aS'001011101001111101010000010010101010100011010110001001011111110010100110'
p21
aS'010110110110001010101011010'
p22
aS'101001110110001010100010010100010110011000010001001001100000110011101101101000101100000101'
p23
aS'011111010010100010000101010011010001'
p24
aS'101100010010101101010011001100101110001001001100100001001000001000100010'
p25
aS'011001001101010101001100001110000101100110101001000101'
p26
aS'000011001101010001001111001101110001000101001100011010101000001010011010001010010'
p27
aS'000011101001001010100000110000101110110001101'
p28
aS'010101110000110010010010110000110010'
p29
aS'010000101000111110110001010000010110'
p30
aS'011111110001101101011010101110000110011000010'
p31
aS'011110001101001110101101110000111010010011010001000001010101010011000101011100001101110001'
p32
aS'101110010010000101'
p33
aS'011110101010100001010010101011110001000011110101110110'
p34
aS'100110010100100101'
p35
aS'001111101010101101010001001'
p36
aS'100110101011000010001101001001101101010110010'
p37
aS'100100110000010110101111101101010101001111101101110001010110001110000110100100101'
p38
aS'101101010000100001100101101100101101001110001000011010011000001010111101100100010110000010'
p39
aS'000011001101100101000111101110000001011110010101110110000111001010110110010111101'
p40
aS'011100101101100101001101010011101010010100101100010010100110010001011101000111001'
p41
aS'101001101011001101001101001100111110'
p42
aS'001000101011000101'
p43
aS'101110101001101001011001010'
p44
aS'010011001110001110011110110101000110011101101101001110001000010'
p45
aS'110000101011110101011010110001010101100111101001100101100001010000111110'
p46
aS'101000010000011001100111001100111010110001110100010101000100010100110010'
p47
aS'110000001000011010101010010100001001011011101110000010010110101010001110000010101100110101'
p48
aS'001110101000101101101000101010100001'
p49
aS'101100101101100010100001010000101010100010101101101001101110010'
p50
aS'000111110010011110010100110011101101'
p51
aS'001110001100101001101000101010101010101110001101001001011010010'
p52
aS'011100001010011010101001101011100001011100101011011010'
p53
aS'101011001100110001010001101'
p54
aS'010011001100110101101011010011100110001100110110001010011011110'
p55
aS'100011101011101001101001110010100101010001001101000101100000110110001001101101101'
p56
aS'001101001101100110100011010000111001011001110'
p57
aS'011111110011100101000011101'
p58
aS'101000001100000101000111001000001010000111101001000001'
p59
aS'100011101010001010101010001000001101011101001001101110011110101'
p60
aS'011011001001011101011100001011001010100100110010111001101011110'
p61
aS'001001010001001010'
p62
aS'010000110011111110001110101010001110110001101101011101011101010100101001001001110100111001'
p63
aS'101100001101100010101101101110001101101110101'
p64
aS'000111001000110110010000010100001010011001001100101110101111110011111010110000101101110110'
p65
aS'001100101000011010000111001001000001001100101010000010101110110100110001000011001'
p66
aS'010100101101000010011100110'
p67
aS'100100110100000110'
p68
aS'010010110011000010010000110100001001100001110100101110000110110100110110'
p69
aS'110000010100011010011001001001101001100010101101101001011001010100000010000110010011011110'
p70
aS'101000010011110101101110001'
p71
aS'010110010000010001011000001010001001010000010101111110010000001011000110'
p72
aS'010000010100010110101101110011010110011100101011011010'
p73
aS'100001110001010110100110101100001110001001101'
p74
aS'010001010101100001100001010110001001000110001011000101011000110100101110'
p75
aS'101011101010011101101100001010011110010100110101001010101001010100110101001001010011111010'
p76
aS'011111101101110001100011010101110101011101110001101010100011101'
p77
aS'100001010001110010001000101001101001100001101110001110000011101001010001100011001'
p78
aS'001010110001011101110000010010001010000100101000010110101100101000011110'
p79
aS'101011001101100010100101101001001101100111010000110110100001110001010110101010010101011010'
p80
aS'001100101100010001100011101011100001001010101001110001110000001101000101101110001'
p81
aS'010011001000011010101011110101011010001101101000010001'
p82
aS'100000101011100101101100001010010010011111110110000010100101001011101010010110110'
p83
aS'011011110000110001011110110000111110'
p84
aS'011110001011001001010010110011111110100111110100100110010001010001100101101011001000011110'
p85
aS'101101001001000101010010010010110010000111101011100001'
p86
aS'011111101101000010000001110000001110011110001101111010010110101001111110'
p87
aS'001010110000010101010001101010000101101011010011001001011110001100100110110000110100001110'
p88
aS'101100110000010110'
p89
aS'001101010010101110001111010100100110101010010000001110100001010100101001011100010101011110'
p90
aS'000101001101101001'
p91
aS'011101001101110001'
p92
aS'000100001010011110'
p93
aS'000010101100110101010110010000010010100110010001011010100110101010011010101011001'
p94
aS'001000010001100010100000001011111110'
p95
aS'001100010001010001011010001100101110001011110100001110000111110001100101'
p96
aS'000110110010010001101010010110001101000011101'
p97
aS'011010101101111001011100001101111001'
p98
aS'001000101110000110100111110010110001011100001000110010011111001110001110100010110010001101'
p99
aS'001001010100110001011000001110001010011011010011001101010000101'
p100
aS'000111001010111001'
p101
aS'000010110011100010100000001000110110101000101100011101101010001101110110000010101000110001'
p102
aS'000011101011001010010011110101010001011010101001001110000110001'
p103
aS'100001010010101001001011010001001110101011010'
p104
aS'110001001011101001000001101001010101011111101100011010110001110000101001'
p105
aS'011001110010101001100110101010010010'
p106
aS'001100110011110101100000001010110101110000001101110101101110001100001110100011010'
p107
aS'010010010001001001001010110000101001000100110010110101010011001010110101'
p108
aS'000001010101010110011111001101001010000101010010001110100010010100010001100101101'
p109
aS'100000010101110001010110010000001010011001001001000001001110101010100101101111010'
p110
aS'011111110110000001010001010001110001100111110'
p111
aS'011001001100100010'
p112
aS'110000110110001010001100001011110110010001110'
p113
aS'100100110010010110001100001011111010010001110100100001001111010100110010110000001'
p114
aS'011001110011001010011101010100011110100110010100011001101101001'
p115
aS'101111001011010101010100010101010101001001010000100010010111101101111101001111010'
p116
aS'000111110000110110'
p117
aS'000001001010010001110001110100001101100100001001100001001000101000100001010111110'
p118
aS'101011001010100001010001001011111010101011110011001001001100110'
p119
aS'101100110010110110010111001'
p120
aS'110000110101100001101011001101001001'
p121
aS'001100101001110110010010101110001101010001010010100101011000101010000110000011001100101110'
p122
aS'000111101010110010010110001000110101100011010011110010011010010011101010100010101'
p123
aS'011010001000010001010000110011100101001011010011010010101010101'
p124
aS'010010010001001110000010001101010001100011001001110110101100010'
p125
aS'000101001011110110011101101100111110'
p126
aS'100001001101101010011000010000100101010011110000011001100111001'
p127
aS'001110110011111001'
p128
aS'100010010001101001001000001010100010100101010100011010011110101101011101001111010'
p129
aS'110000001011110010'
p130
aS'100101110010100010000010001001011110010100101'
p131
aS'011111010100101110101110101011001010101001101101100110001100110001111001'
p132
aS'001000001101110010010000010010011010'
p133
aS'101011110001110101'
p134
aS'100011010000001110'
p135
aS'010001101011011110100110010000011101001010001000101010010111101001000110100110001001110101'
p136
aS'001001110010110110000111101100010010011101001010100001001111010'
p137
aS'000111110010100001001110010010100101101001101011011110010100001'
p138
aS'011001110011000101000110010011011101'
p139
aS'101001101101101010101101101011100110000101110101111001011001010101101001'
p140
aS'101001110010000101010001110001111010101001101'
p141
aS'010111101000001010000110001011101001000111110000011001000101110100011110010001001'
p142
aS'001011101011110010010101101110000110100001101100000110101101010010011110'
p143
aS'001101010101010101000110110100110110010101010100011101010110010010110110'
p144
aS'001101001001011010010010001101010101010000001000001001'
p145
aS'011101001100111110010110101000001010101000101001110010101111001101100101'
p146
aS'010000101101011110'
p147
aS'010101110110000110000101110000101101011001110110000001000010110100101110101000001'
p148
aS'100011001000010010110001101100011010001101001100001101100001110101101110'
p149
aS'001010101000011101101101101011001101101011001000100010'
p150
aS'010001101001100001001110001001101110000010001001110101000100010'
p151
aS'100110010001011001000010101100111110000110010100011001100111001000011010010110001011101101'
p152
aS'100000010000110001011101101001000110000111010'
p153
aS'101110001101011001001000010001001010100110101001100010'
p154
aS'011000110100001010001101001100001110011110010010111001100110010'
p155
aS'011011110001111010001000110101110010010101001'
p156
aS'011010110010011110101101010011100101101110101100001101001000101'
p157
aS'011101101011011010001110010100000010001011010'
p158
aS'100001101100111110101111110101100101100111110101111010011000101101100010'
p159
aS'011000101011110110110000010101001110101110110100000110'
p160
aS'100001110110001010010100010010101110001101110001101101100011110101100101101010001001110101'
p161
aS'100001001100000001001010010100111001001111001100011110001110101010000101'
p162
aS'110001001011110001001001010011010110010100110100110001101110010110001110101001110001101001'
p163
aS'100001010101000101101001001011101101001110010011110010100000110000010001001100110'
p164
aS'010110101010011101010001001100000110000011001'
p165
aS'010011001011111010011010101001101101110000101'
p166
aS'010101001001101101011001001001100101001001010100100001001010101010011001000110101'
p167
aS'101111101101110101011101110000110001101110010100000110'
p168
aS'101011010100111010'
p169
aS'010011110011010110011010110101101001101010110011010110001111001011001101010011110'
p170
aS'011011110010100110100110110011101101010011001'
p171
aS'001110101101100101010101010010011010'
p172
aS'011111110101111010'
p173
aS'101111101011101010010110101'
p174
aS'010010001110000101011011110000010010010000101101111010011110110'
p175
aS'011010110101100110011000010000001101100101101'
p176
aS'101000001000100110011000001101101101000110101'
p177
aS'101101101001100110010010010011111101001111110000101010001111110001111101010110001011111101'
p178
aS'001000010011110010'
p179
aS'001100001001000101010011010001001001011100010010010010100100101'
p180
aS'000001010000001101101000101011011010010010110000111110001101010'
p181
aS'100011010001100010'
p182
aS'010101101011011010101001101101010010001100001'
p183
aS'001011101011001101001101001011010110011010110001011010011001010110000110011010010'
p184
aS'101101001011111101101110001010010110000011110000101101101010010101100101'
p185
aS'000010001101101101101110010011111010100110101100100110010011110'
p186
aS'101110001010011110100101001101010101'
p187
aS'000111110011100110011011110100010001000111110100100101000011101'
p188
aS'101100010010011001011010001011101010'
p189
aS'001110110100111001001110001001110010101100110101110010101110101101011001100110101001011010'
p190
aS'000101010010001110001000101100101001011010110101110110'
p191
aS'101101010101011001110000110001110001001001101010101010001110101000010010'
p192
aS'011100010101100010011101101011110010001011101011100110000100001100011010100111001'
p193
aS'000001101101111110011000101'
p194
aS'010000001001010110000001010'
p195
aS'100001010110000001'
p196
aS'001110110011001010100110110'
p197
aS'110000010101110001'
p198
aS'011101001001011010101001110'
p199
aS'011101001001010010101100110001010010010111010100000001100100010001111101101100010'
p200
aS'100110101101010110000110110100011101101100110'
p201
aS'101000110100101010011010001001000101010100110'
p202
aS'011010010101011001100000110011111001010010110100011001'
p203
aS'001001101000001101'
p204
aS'000010101000110101010011001101101101001000001100011101001110110011111010'
p205
aS'001000101100001010'
p206
aS'000111010001010010000101110'
p207
aS'000100101101000101001100110'
p208
aS'000110010101001101100111001100110001100100110000011001'
p209
aS'001001001100010010010111110010000001000010110100110110'
p210
aS'011101101001001001000100001001110110100101101000110110000011110010000001'
p211
aS'010101001110001001001101110100001010010101101101010101'
p212
aS'000001001000111001010111010'
p213
aS'100101110101100101011111010100101001100010010011011001110001001000100010001101101100010101'
p214
aS'100010110100010110010101101100010001011110101001100001011101010'
p215
aS'010111010100100110001100010110001010000010101011110010101111110001011101011001110'
p216
aS'010110110001100110001111110100100010000111001011011101001111110000111001000001001'
p217
aS'100011101101101010'
p218
aS'010111010000010001010000010110001010011011010011110110110001101101101010011011101'
p219
aS'101100110110001001101011110100101010100001010101010101101000001101000001010110001'
p220
aS'011101110000100010001011110'
p221
aS'001111001001110110101100010100000001101001110101101010'
p222
aS'100011001011101110000110010010010010000011010010000101001101110001111101'
p223
aS'001011010010010001000011101001001010010101101100011110000101110010000010'
p224
aS'001010001011000110010100010101111110101111110101000101'
p225
aS'101000001101001001101011010101011101000111010001000101100010101101000001001011001000010010'
p226
aS'011001010001101001101001010010110001011100010'
p227
aS'010110010010111110000110101101110101'
p228
aS'100101001100110010101011101101010110001000010100001001001101001'
p229
aS'101010101101101101001001001110000001101110001'
p230
aS'010100010010010110010110001'
p231
aS'100100110010101001000010010101010001101111101'
p232
aS'011100010101001101'
p233
aS'001011101000011001000111110100000101001101001011111101001111101'
p234
aS'100000110100101110010110110100000101100011001010101001000101010'
p235
aS'010100001101011001100000010110001101110001001000100101'
p236
aS'001110110001010110101000010100001110010111010101001001001110001011011001000111101010110110'
p237
aS'110000001001011101101100110001001001011100010100010001100011010001100101000111110101011101'
p238
aS'100011101000110010000110010001100101011100101100001001100111001010100101010111101001001101'
p239
aS'001100010000011110000110010001100101001010101010111010011001010101101110101111001001110010'
p240
aS'001000101100010001100011101'
p241
aS'110001001101100110001000101011001010011110010100011101010101110000010001'
p242
aS'000100001010001010101011010000111110011000010011000110000100110101111010000111010010110010'
p243
aS'011110001001010001100000101101010001000010110000011101011000010010001001011101001100101101'
p244
aS'101101101101001101100101101010111101011110010010000101001111010000110001010101010011001110'
p245
aS'001101010100000010100001101'
p246
aS'101010110101001110101001010100001001000101001'
p247
aS'010001101101001001011110110001110001011101110010011101001010001001000001101001110'
p248
aS'000001001101110110000101010010011010001000001101000101'
p249
aS'011100110001110110011011001000010110101001101010111001010011010100010101'
p250
aS'001110110001100010010000101011111010011101001010000010100100110001011101100011001101011001'
p251
aS'000110110010010101010001010011101101110000001010001010000111001000111110011111001011111010'
p252
aS'011100010011111001010110010010111101101100101000001101001010010010100001'
p253
aS'001011101100011101100001010011101010'
p254
aS'101101110001000101001110101010110001'
p255
aS'110001110011111110011011110101010101000011010000100001011001001000111101'
p256
aS'100010101010010101001011110010010010'
p257
aS'010001010011000010010010101001011110010111101000101101001111101001100010'
p258
aS'001001010000010010010000010100011101100010010000100001011110110'
p259
aS'010100110010001010010000110'
p260
aS'011101010101001101100001101110001110001110010001100001000100110110000001001000001100111101'
p261
aS'001010001010111010011001010101010101100010101011010001011100001010000010'
p262
aS'101101101001110001001010101100000101101001110100010010101001110001010001001110110101010110'
p263
aS'101111010100101001'
p264
aS'010010010000111001001111001011010110000011101000010110'
p265
aS'011011010101100110001101001010001101001111110'
p266
aS'000101110101000110000100110011010001'
p267
aS'110001001101100110'
p268
aS'010111010100010110001101101100111001011010101100110110100101010101101110'
p269
aS'101101110000100010001010110011010101000011110000110101110000101000101010'
p270
aS'101000010011110101000110101100000101001001110001110101'
p271
aS'001001110010100001100010101101100101000101110101101110101100101010110101110001010'
p272
aS'010001010110001101011010010'
p273
aS'001110110110000001101100110100000101101111110011000010011011010100101010'
p274
aS'100100101101010001100110110100100001000010010001110010'
p275
aS'001001001100001010000100010'
p276
aS'101101001010001101'
p277
aS'000100001100110110100101001'
p278
aS'101101110010000110011110001'
p279
aS'011100001010101010101111110011100001010001101011110110100111010'
p280
aS'001100001100101101100100001000111101010000101'
p281
aS'000010010101011101010001010'
p282
aS'001001110101001010000101010001011001'
p283
aS'101011101101110101011101010110001101101011010'
p284
aS'100110010010101010001110101110001101000011010001000110100110001010111010'
p285
aS'011111010000100001010001101101000001100110001010111010100001001'
p286
aS'100111010101010101000111001010100101101001010010111110100100010000111010000001001010011001'
p287
aS'100011110000001001'
p288
aS'100001010101001001011011001'
p289
aS'010011110101011101100100010010101001'
p290
aS'010000110100111010000110001001001001010111001100101110000100101'
p291
aS'001010001001110010110000101000011001010011101100101010110001010000111101001011110'
p292
aS'000010101011011001010110010100011101001011110001000101000111110010111010'
p293
aS'001111001010101010100011010101011110001111010100111101'
p294
aS'010110001001101001101000001'
p295
aS'011101101101110101000011010010000010010100001100100101001111010'
p296
aS'010100101010111110001001110100100110101010010001101001'
p297
aS'101101110101110010010100001'
p298
aS'010001001101111101001011001011010001011010101000111001100001101100111010'
p299
aS'100010010010101101011011101'
p300
aS'011011010010010010010000101010001101100100001001000101011111001001100110100010101101111010'
p301
aS'000110010000001010'
p302
aS'110001101001110101000101101'
p303
aS'010101110010010101'
p304
aS'010010001011010110011100110100010010000011001'
p305
aS'010001101100001010100001010010001001001001010101001010101100101'
p306
aS'011000001100111110000010110000111110001110110'
p307
aS'001000010000110010010001101000010110011111010'
p308
aS'001001101000111110101001001010111010010111110010111001000111110001111101011110101101010101'
p309
aS'100010110001110101000011101011000101'
p310
aS'010100001011010010011011110101101001101001001101001010110001110010000101001111110110000101'
p311
aS'001011110001100001'
p312
aS'100001101000100101010001001100100110000111010110000010101110101101000010'
p313
aS'000100010011010001011101001001100101100111110'
p314
aS'000101101010100010010101001100100001011111101001101010010010001'
p315
aS'010111101001001110001000001011111110100011001101001010010111101000110101001110010'
p316
aS'000110001110000110101100101000010101000100010101100001001010010100100001010100110101101101'
p317
aS'101001110001101110001011010'
p318
aS'100100010101100001101110010010001101011000101'
p319
aS'001010101101100101011101001001001110110001101011110010000001001010101110'
p320
aS'001001001011111010110000101001000010011101101100110001'
p321
aS'011000001011111101000101001010010001100001110001111110110001010010100110'
p322
aS'010110101010000001'
p323
aS'101011010011010001101110101010100010100010001001111001100100110011111001000111110101001101'
p324
aS'001000101100011001001111001101101001000011101010010101101101001101010110'
p325
aS'101010001101110110110000101010000010010011001010111001'
p326
aS'010000101110000110001101001001010001000011010'
p327
aS'011110101100010101101000010101110010101100010'
p328
aS'100110110100110001000001101100101010101001001101110110000100001001000101100001001100101101'
p329
aS'001010110100101010010100010001100101010100010100101110100110010000111001000110010'
p330
aS'000010010101000001000100001010001101100000101001011110100100010100100101'
p331
aS'000110010100101101101011110001010001011011010001111010'
p332
aS'101010110001001001000010110001011010001111001010111110010100010'
p333
aS'010110101101101001010000101000100001110000010101111101001100010000100110001010010000011101'
p334
aS'100110101011001110000001110101110101001011010100101010011101101010101110'
p335
aS'000100001001101001110000101101010110001010001010010010001001001101111001000101010001111110'
p336
aS'010111001000011001001101001011001001011000010100010110001010101110001001'
p337
aS'011000101001011110100110010100100110000100110100101101011110110100011001000101110100111101'
p338
aS'101010010001001110101111001'
p339
aS'001010101001001001010100001001011001101101110101000010'
p340
aS'100110001000010110001000110100001010'
p341
aS'100011001010011010'
p342
aS'010010001010001010'
p343
aS'101101110001101110101010101'
p344
aS'000010101000111001001010110001100001011100101100110101000011010000001001'
p345
aS'011100010001001101100011010100111010000101101101011010000001110010101101'
p346
aS'000100001011110110010011110011000101100110010'
p347
aS'000110010011101101100000110'
p348
aS'000101010101001001101010001101011101000100110001000110'
p349
aS'010111110000001010101000010100000010011001010'
p350
aS'101111001001011010010011110000101110000110001001000010011101001'
p351
aS'000101110100100001000111010001001110001101110'
p352
aS'000110110000110101010010110001001110101111110101100001000011101010011101110001101001011101'
p353
aS'011010001101000110000011001101110110000010110000111010'
p354
aS'010001101000110101001100001000001101010011101001010110'
p355
aS'101100110001101101101001010010001010011001010001010101011010001110001010000001110001111110'
p356
aS'100101010010010101011111110011100010100101001000011001000110101'
p357
aS'100000010011101110011110101011101001110000110010010110000111010011000101100111110001100001'
p358
aS'001111110000100010110001110010011001001010001001011010101001101'
p359
aS'100010010101001110101011101010010110010110110010010010100001001000001101100011010010000110'
p360
aS'000110001001001001101100001011011110101101101101001001'
p361
aS'011011110001000101010100110011110101010100110'
p362
aS'011110010101111010'
p363
aS'011111101010000110110001001001111101000100101'
p364
aS'101011101010101101101000101101010010101011101101010101'
p365
aS'001010001110000110001010010101111001'
p366
aS'110000001011110101100100010010110101100000110'
p367
aS'000111110110001001001011010101010101101101010'
p368
aS'001100110101011001011010110'
p369
aS'100010001000001001000111010001110110'
p370
aS'011000001101011010010001010'
p371
aS'110000001001110001'
p372
aS'000011010011010101100111010011000110101101010100111101001101110001000010000011010011110010'
p373
aS'000010001100000001100111001101001101100110001100010001000110001101000110011001110'
p374
aS'110001010001011001011000001110000010101101010100001101000100101001111001010010101'
p375
aS'101110101011001001011111101101101010'
p376
aS'011000010101000001100100110101100101011110010100010001100110110100011001101111110'
p377
aS'001110001000010001101010001'
p378
aS'100010001001101101010011110'
p379
aS'001110101100000101000111010100101010010110110001111101010101010101010101'
p380
aS'101100010001000110011111010011011101101000110'
p381
aS'011111001000101001'
p382
aS'000011101100110001000001001010110001000011110001101101010010010000110001'
p383
aS'101010001010111110100000001'
p384
aS'000010001001001101000101110010100010101110001100111001011010010101101101101001001011000110'
p385
aS'000111001010001101'
p386
aS'001000010011011110001100010101100110011000001101100101101111110001011101011011101100011010'
p387
aS'011010101101111010'
p388
aS'000001010001111010010001001110000001110000101100111010001101001'
p389
aS'100100101000001001001010010100110010011101110011001110'
p390
aS'001100110010010001'
p391
aS'010010010010110110000001010000110110001010101100001101110001010010001010'
p392
aS'011010110100010010100010001000101110001100001100100110101000010101001101101000110'
p393
aS'001110101000010101100111001'
p394
aS'101100001000100101000111001011110110001110110101000110010100010001111001010110001011101110'
p395
aS'010010110101100101011000101011110101011111001101101010101000110000100110101100110010101010'
p396
aS'011000001000100001100011110100101010010001101'
p397
aS'000101110101001101100010101101110010100110001011000101'
p398
aS'011011001011100101101001101100111010011011110010101110011010001011110010'
p399
aS'100011101011011110101010010'
p400
aS'011001010001111010010001001110001110010100101011101101011101001000110101'
p401
aS'001010010000001110011101001000011001110001001110000001001001001'
p402
aS'011000110001101001001000110101100110011010110011001101000100110011011001'
p403
aS'100110001010011101'
p404
aS'000011110100111001010100110011011110100100110001101101'
p405
aS'010110101100111010001110010011001110011010101010111010010101110011011010'
p406
aS'010110101100111001011000001'
p407
aS'001100110100111010100101110100101110011110010011111101001111001101000010000011010'
p408
aS'100010110101100101100010101000111010011101001011000101010010110'
p409
aS'011100101010100001011010101'
p410
aS'011101110100101110011010101'
p411
aS'101111010011011110100000010100100101'
p412
aS'010110001011110110000011001011010110100001110110001110001000001'
p413
aS'011011101000111001001101110100010010010000101000110001011000110100101101'
p414
aS'010010010001000001011001001000111110010101010101000110'
p415
aS'110000010100101001'
p416
aS'000100101011100110000010010000110010010111110'
p417
aS'000110001010101001000110010001100010101000010001111010'
p418
aS'000001110011100110'
p419
aS'001001110000011110000011010010010101011000010001010010'
p420
aS'011011101100101001010100101100001101101010101011000101000001010000111110001111010'
p421
aS'100001001000011101100000001001101101000011101100001010101001101'
p422
aS'001100110001011101100000010101011001100011001000101101010110101001100110101101110100001010'
p423
aS'000100001101011101011100101011111101010001110000011001100100101100001010'
p424
aS'011101101010101110000010010001011110010010101001001010101010001'
p425
aS'000110001101001001000111110000100001100111101000001001000011010'
p426
aS'000011010100101010001100001100011110101101110100000101000011001001000001001010110'
p427
aS'100100010100100101001101010010000110110001101101011110100010101101010110110000110'
p428
aS'101011110100110010001001110001001001'
p429
aS'011100101000010110100001101'
p430
aS'011100001000100010001000101010110001110000110'
p431
aS'101110010000010010010100001001111101101110101101101010010011110001001101'
p432
aS'110001110011000110101000001010011110010010101010010101001000101101110010010011010011010101'
p433
aS'101111001010001110001100010100101101010110010101110101000110101'
p434
aS'000111010000011101101110001100100001001111110101010110010101001000101101011110001'
p435
aS'011001110000011010100001110010101110011111110010001010011111001001111101101001110'
p436
aS'100101010100011001000001110110001001011000110010000110100110010101110001000101110100100001'
p437
aS'100110010010011110001000101101111110100001001000001010'
p438
aS'101110001100011001011011001'
p439
aS'011001110101101110101101001'
p440
aS'010111001000111001011111001000010010010101010110000110'
p441
aS'011011110001101001101100010101011110001111110'
p442
aS'100100001010110101000110101000111101'
p443
aS'001001001001010001010011110011101110110001110010101101'
p444
aS'001011010000101010000111010101011001010010010010111001100100101001101101011000110'
p445
aS'011011001000110010'
p446
aS'010001010011001010001000101100110001000101010010110001010001101101011010011010010'
p447
aS'001110010010000001'
p448
aS'100000110100000101100100010101010010001001101'
p449
aS'101110110011111010000111101000101001001100001001101101010010101010101001'
p450
aS'010011101001001010010100010101101001'
p451
aS'011101001010000010101001101010100001101100010100011010010101001000010110'
p452
aS'011101101000110110001101101101111010'
p453
aS'011001101101100010011000001010011010011110110000110001101011010'
p454
aS'011100110010000001100000110101011010010111101001111010001000110100111001'
p455
aS'011011101000100010'
p456
aS'001111001100101010000101101'
p457
aS'001101101101100101'
p458
aS'101001101101110101100001110000111010010110010101110001000101001101100101'
p459
aS'100110110010000010'
p460
aS'010001010011101010010011101001101010001010101010000010010001001100010110'
p461
aS'010011001011101010101011001100100101001010110000110101'
p462
aS'110000110101101110101111010000011010101010010010000001110001110010010010000011010001000110'
p463
aS'011101001011101001010011110000100001011110001101010010011000101100111101'
p464
aS'101110001000110101'
p465
aS'000111001101011101100000110011010101000110101'
p466
aS'001100001100010001010010010101010101'
p467
aS'010100010011110101000110010010111001001101110110001001'
p468
aS'011010101011100010010110010'
p469
aS'001000101010100010001010001010110001000110110101011110110001001'
p470
aS'001101110100011010'
p471
aS'000101101101001110001101110000011010'
p472
aS'101111010000111101'
p473
aS'000010010011011101101000010001000010'
p474
aS'101001010011100001001010110001001010101110110101110101001010010'
p475
aS'100010001011101001000111001101111101000111010100110110000011001'
p476
aS'101000001000001110000110010101011010100000010001001101000100110101110001010100101'
p477
aS'100110110011111101101111010000111110000101001101100101010001110000100001101110001010011010'
p478
aS'011010110101011010010010101'
p479
aS'010001110011110010001001001011010110101100110010011001011111001001011001010010010010001110'
p480
aS'101101101101101010000110010010111110011100001000010101'
p481
aS'011000101011010101110000101000010110010010010000001110001111010010001101010101101'
p482
aS'100000001011010010011010110101000010'
p483
aS'011111001101100010001000001001100101001111110000001101'
p484
aS'011110101001011001101111101010110010101000101001100101101101010101111010'
p485
aS'010110001101010001001000110'
p486
aS'011011101001000101000010110000011101010000010010000001010011101100101101'
p487
aS'011000001010001101010110010110000001010100001001111110100111110'
p488
aS'001011110010001101'
p489
aS'010011110011111101100011110000100110101011110010111101010001010010001010'
p490
aS'100011010100110101100010010001011101000100101100110101011110101000111010100111001001000001'
p491
aS'100010110101001110010011110000001010'
p492
aS'001101001010011010'
p493
aS'000111001011101010011111101'
p494
aS'000111101010100010011101010101100001010110001'
p495
aS'110000010010001010011100010000100010010100010'
p496
aS'101101001100110010100011010001100101001100001001011110000001001'
p497
aS'011000010101001101010100110101100110100000010010110010010011101011010101010011101'
p498
aS'001001010001100101101100101100111010'
p499
aS'001100010000011001001111101001011110101001001100110110001001001100111010011000010000111010'
p500
aS'000100110010111001001101101000010101101001101'
p501
aS'100110110011001001011101010011011101011100001001010101'
p502
aS'011110001001001010100100110001100101001111101100010010'
p503
aS'010000001101111001001101110'
p504
aS'100111101010000001101000101010110110101011101000111101100110001001100010001001001'
p505
aS'001110110101101110000110110010011101000111001000011010001000001011000001'
p506
aS'000111101000110010010001001000011001100001101110001010011110101001110010011101110101101001'
p507
aS'001110001101011010100000110100101101010001001100001101100100101'
p508
aS'010010001011010101100111010100000110100101110011000001'
p509
aS'000111110101001110'
p510
aS'010101101000011101011101101011000001011001010'
p511
aS'001110110101101001010100101101110001101100001011111001100010101010111001'
p512
aS'011111001001001010101001101101010110010101101101010110100001110011101010000111101010111010'
p513
aS'011100001001000001'
p514
aS'101101110000111010000001001011010110101001001001001001000011010010101110010001110'
p515
aS'101100010001110101011011001'
p516
aS'000011110101100101001101110011110110010110101010110110101011110001001001'
p517
aS'100101101011010101010111110001011001000100110010110101001101101101101001'
p518
aS'101110001101000110001110001100101001001101101110001110100100001001000101010111010'
p519
aS'100110101001001110011101110010001101000111001'
p520
aS'100110010001111010010011010101111001101101101001111010'
p521
aS'000100101101110010000110101001000010'
p522
aS'101111001010111001100001001101110110100111110001101101001010010'
p523
aS'101001001101110110011110010101110110101101001001010010'
p524
aS'000110010001001101000001110101011101100000101000010110000111110100111101101110001100011110'
p525
aS'011101010101101110011001001101111110110000001010001001'
p526
aS'110000010000100101100010101010110001101001101'
p527
aS'000110101010101101'
p528
aS'010101101010111101'
p529
aS'001001110100110101101010010'
p530
aS'100101001000010110000100001011010101'
p531
aS'010000101010001110'
p532
aS'110001101001010010'
p533
aS'001111110101000101001000101101110010000100001'
p534
aS'000101001000101001'
p535
aS'100101101011111110010110110101101110010010001101100101101001101001000010001010101'
p536
aS'100011110010000010011101010011010110100100010000011110100110001001011101100011010011101110'
p537
aS'000011110011100001011001101000100101'
p538
aS'001000001100100101101001101011000010101000110010000101010110110010011110'
p539
aS'100110110010001110001001110010111101101010101'
p540
aS'100101101101000101010010110100011101010000001011111110'
p541
aS'000010110000110001100000001110000110000111010'
p542
aS'100011010010111010000110101100100001101010110001001110110000110101111001010101001'
p543
aS'001101110011110101100100010010100010010010010000100001011000001011100001'
p544
aS'011110110010110001100000110000111110101111110000110110001001010001110101'
p545
aS'001011010000101001010111101011110101010111010'
p546
aS'101010110001001110100111101011001001001100101101000110101101001011010101100000101'
p547
aS'110001101101001110000110110011010010'
p548
aS'000010101000101110100100001100001001'
p549
aS'101110010110000101'
p550
aS'011110010000010101010101110001000110011101010101110110011011101'
p551
aS'011100101101100101101100110100011010000010101101101001001000110001111110'
p552
aS'101101110010001001011000101100111110'
p553
aS'101001010010000010000111001'
p554
aS'011111010101111001010110010010111010100100101101101001110000010001010001001010010000010101'
p555
aS'000100001001010001100011110010001101001100010100001110101100001011001101'
p556
aS'010100101001000110100000110001011001010010001001101101010000001'
p557
aS'000001001000101110101111010000010101001101001101011001001111001100111110'
p558
aS'100101101001111110'
p559
aS'100000001100100001000100101'
p560
aS'010111110001000110011110101010010101101110101'
p561
aS'011001001010000010010001001110001001011011010010001101000101010100000010101000101101110010'
p562
aS'010001101100111101000010001110001010'
p563
aS'001110110101100001010000001010011010101101101110000010010100110011100010001010001'
p564
aS'100111110000011110001110101010001001000101010'
p565
aS'101011010101101001'
p566
aS'010011001000010001100010101001000001101111010011001101110000010100110101'
p567
aS'101000010001000110010010110101000101101100010'
p568
aS'100001110000110010000001101'
p569
aS'010010001101001101001000101001100101001100110100101001000110001100101010000011110000011001'
p570
aS'010110110000101101001010010011000001'
p571
aS'100100010011100001100110001000010101101101101001010001'
p572
aS'100111110011101110001110010001010110100101110001011010100011110010010101'
p573
aS'100111110000110010010110101001111110100101001000010110010111101011011010'
p574
aS'000001101010101010010011101110001001011000101011110001011000101011100010010111101001010010'
p575
aS'011110110010000001011001010'
p576
aS'100100001010001110011100101100001110000110110011010001101001110101111010100001001'
p577
aS'000001010101001010100011001000101110001010001000011010100110110100110010100000101'
p578
aS'101011110010001001100001110110001010101100010'
p579
aS'101000110100101110100000001100111001101011101101100101100111010000011001'
p580
aS'001100001100101101101101010001110001100100101110001010101111110101101001101001110011110101'
p581
aS'010101001001011001011110010010010101000001010101111010000100110000110010010101010101000110'
p582
aS'001111101011101001100111110001101101000010010000100101001011010101010101001011101000001110'
p583
aS'001110001001011001110001010010111101100110001001001010100111010'
p584
aS'010111010101011101001001110'
p585
aS'010101101101110001010001110'
p586
aS'100111010100010101101111001011111010011001001'
p587
aS'011000001101001101'
p588
aS'000010001011110010'
p589
aS'100101010100011010101000001011111110010110101000011001101110001100010101100100010001010010'
p590
aS'101000010100010001001110010000010010011100110001000010101000110010000001011001010110001001'
p591
aS'001011110010001101011010101101101010010001110001001101100001101101011110110001101011001001'
p592
aS'010101101000110001000010001'
p593
aS'011010001010100110'
p594
aS'110000010011011110110000010000100010101100001110000101'
p595
aS'010010001110001101010001001101011101001101010101011010101011010'
p596
aS'011000010010000010010000110101010101011110010101011101101101101011100001011100010110001001'
p597
aS'000100001001100010101101101101000001010010110100110101100001001000100010010101101011101110'
p598
aS'010001001100010001100111010101000001000110101010101010100001101001010101000101110'
p599
aS'100101001010111001000001110001001110101111110'
p600
a.